; Function Attrs: mustprogress nounwind uwtable
define void @_ZN9grpc_core27CertificateProviderRegistry7Builder5BuildEv(ptr dead_on_unwind noalias writable sret(%"class.grpc_core::CertificateProviderRegistry") align 8 initializes((16, 24)) %0, ptr noundef nonnull align 8 dereferenceable(48) %1) local_unnamed_addr #9 align 2 personality ptr @__gxx_personality_v0 {
  %3 = alloca %"class.std::map", align 8
  %4 = getelementptr inbounds nuw i8, ptr %3, i64 8
  %5 = getelementptr inbounds nuw i8, ptr %1, i64 16
  %6 = load ptr, ptr %5, align 8, !tbaa !11
  %.not.i.i.i.i = icmp eq ptr %6, null
  br i1 %.not.i.i.i.i, label %23, label %7

7:                                                ; preds = %2
  %8 = getelementptr inbounds nuw i8, ptr %1, i64 8
  %9 = load i32, ptr %8, align 8, !tbaa !23
  %10 = getelementptr inbounds nuw i8, ptr %1, i64 24
  %11 = load ptr, ptr %10, align 8, !tbaa !24
  %12 = getelementptr inbounds nuw i8, ptr %1, i64 32
  %13 = load ptr, ptr %12, align 8, !tbaa !25
  %14 = getelementptr inbounds nuw i8, ptr %1, i64 40
  %15 = load i64, ptr %14, align 8, !tbaa !26
  store ptr null, ptr %5, align 8, !tbaa !11
  store ptr %8, ptr %10, align 8, !tbaa !24
  store ptr %8, ptr %12, align 8, !tbaa !25
  store i64 0, ptr %14, align 8, !tbaa !26
  %16 = getelementptr inbounds nuw i8, ptr %3, i64 24
  %17 = getelementptr inbounds nuw i8, ptr %3, i64 32
  %18 = getelementptr inbounds nuw i8, ptr %3, i64 40
  store i32 %9, ptr %4, align 8, !tbaa !23
  %19 = getelementptr inbounds nuw i8, ptr %0, i64 8
  %20 = getelementptr inbounds nuw i8, ptr %3, i64 16
  %21 = getelementptr inbounds nuw i8, ptr %0, i64 16
  store ptr %6, ptr %21, align 8, !tbaa !11
  %22 = getelementptr inbounds nuw i8, ptr %6, i64 8
  store ptr %19, ptr %22, align 8, !tbaa !27
  store ptr null, ptr %20, align 8, !tbaa !11
  store ptr %4, ptr %16, align 8, !tbaa !24
  store ptr %4, ptr %17, align 8, !tbaa !25
  store i64 0, ptr %18, align 8, !tbaa !26
  br label %_ZN9grpc_core27CertificateProviderRegistryC2ESt3mapISt17basic_string_viewIcSt11char_traitsIcEESt10unique_ptrINS_26CertificateProviderFactoryESt14default_deleteIS7_EESt4lessIS5_ESaISt4pairIKS5_SA_EEE.exit

23:                                               ; preds = %2
  %24 = getelementptr inbounds nuw i8, ptr %3, i64 16
  store ptr null, ptr %24, align 8, !tbaa !11
  %25 = getelementptr inbounds nuw i8, ptr %3, i64 24
  store ptr %4, ptr %25, align 8, !tbaa !24
  %26 = getelementptr inbounds nuw i8, ptr %3, i64 32
  store ptr %4, ptr %26, align 8, !tbaa !25
  %27 = getelementptr inbounds nuw i8, ptr %3, i64 40
  store i64 0, ptr %27, align 8, !tbaa !26
  store i32 0, ptr %4, align 8, !tbaa !23
  %28 = getelementptr inbounds nuw i8, ptr %0, i64 8
  %29 = getelementptr inbounds nuw i8, ptr %0, i64 16
  store ptr null, ptr %29, align 8, !tbaa !11
  br label %_ZN9grpc_core27CertificateProviderRegistryC2ESt3mapISt17basic_string_viewIcSt11char_traitsIcEESt10unique_ptrINS_26CertificateProviderFactoryESt14default_deleteIS7_EESt4lessIS5_ESaISt4pairIKS5_SA_EEE.exit

_ZN9grpc_core27CertificateProviderRegistryC2ESt3mapISt17basic_string_viewIcSt11char_traitsIcEESt10unique_ptrINS_26CertificateProviderFactoryESt14default_deleteIS7_EESt4lessIS5_ESaISt4pairIKS5_SA_EEE.exit: ; preds = %7, %23
  %30 = phi ptr [ %28, %23 ], [ %19, %7 ]
  %.sink5 = phi ptr [ %28, %23 ], [ %11, %7 ]
  %.sink4 = phi ptr [ %28, %23 ], [ %13, %7 ]
  %.sink3 = phi i64 [ 0, %23 ], [ %15, %7 ]
  %.sink.i.i.i.i.i = phi i32 [ 0, %23 ], [ %9, %7 ]
  %31 = getelementptr inbounds nuw i8, ptr %0, i64 24
  store ptr %.sink5, ptr %31, align 8, !tbaa !24
  %32 = getelementptr inbounds nuw i8, ptr %0, i64 32
  store ptr %.sink4, ptr %32, align 8, !tbaa !25
  %33 = getelementptr inbounds nuw i8, ptr %0, i64 40
  store i64 %.sink3, ptr %33, align 8, !tbaa !26
  store i32 %.sink.i.i.i.i.i, ptr %30, align 8, !tbaa !23
  invoke void @_ZNSt8_Rb_treeISt17basic_string_viewIcSt11char_traitsIcEESt4pairIKS3_St10unique_ptrIN9grpc_core26CertificateProviderFactoryESt14default_deleteIS8_EEESt10_Select1stISC_ESt4lessIS3_ESaISC_EE8_M_eraseEPSt13_Rb_tree_nodeISC_E(ptr noundef nonnull align 8 dereferenceable(48) %3, ptr noundef null)
          to label %_ZNSt3mapISt17basic_string_viewIcSt11char_traitsIcEESt10unique_ptrIN9grpc_core26CertificateProviderFactoryESt14default_deleteIS6_EESt4lessIS3_ESaISt4pairIKS3_S9_EEED2Ev.exit unwind label %34

34:                                               ; preds = %_ZN9grpc_core27CertificateProviderRegistryC2ESt3mapISt17basic_string_viewIcSt11char_traitsIcEESt10unique_ptrINS_26CertificateProviderFactoryESt14default_deleteIS7_EESt4lessIS5_ESaISt4pairIKS5_SA_EEE.exit
  %35 = landingpad { ptr, i32 }
          catch ptr null
  %36 = extractvalue { ptr, i32 } %35, 0
  call void @__clang_call_terminate(ptr %36) #22
  unreachable

_ZNSt3mapISt17basic_string_viewIcSt11char_traitsIcEESt10unique_ptrIN9grpc_core26CertificateProviderFactoryESt14default_deleteIS6_EESt4lessIS3_ESaISt4pairIKS3_S9_EEED2Ev.exit: ; preds = %_ZN9grpc_core27CertificateProviderRegistryC2ESt3mapISt17basic_string_viewIcSt11char_traitsIcEESt10unique_ptrINS_26CertificateProviderFactoryESt14default_deleteIS7_EESt4lessIS5_ESaISt4pairIKS5_SA_EEE.exit
  ret void
}